target datalayout = "e-m:e-p270:32:32-p271:32:32-p272:64:64-i64:64-i128:128-f80:128-n8:16:32:64-S128"
target triple = "x86_64-pc-linux-gnu"

%struct.ntlmdata = type { i32, [8 x i8], i32, ptr }

@.str.2 = private unnamed_addr constant [1 x i8] zeroinitializer, align 1
@.str.3 = private unnamed_addr constant [61 x i8] c"NTLMSSP%c\01%c%c%c%c%c%c%c%c%c%c%c%c%c%c%c%c%c%c%c%c%c%c%c%s%s\00", align 1
@Curl_cfree = external global ptr, align 8

; Function Attrs: nounwind uwtable
define dso_local void @Curl_auth_cleanup_ntlm(ptr noundef %0) #0 {
  %2 = alloca ptr, align 8
  store ptr %0, ptr %2, align 8
  br label %3

3:                                                ; preds = %1
  %4 = load ptr, ptr @Curl_cfree, align 8
  %5 = load ptr, ptr %2, align 8
  %6 = getelementptr inbounds %struct.ntlmdata, ptr %5, i32 0, i32 3
  %7 = load ptr, ptr %6, align 8
  call void %4(ptr noundef %7)
  %8 = load ptr, ptr %2, align 8
  %9 = getelementptr inbounds %struct.ntlmdata, ptr %8, i32 0, i32 3
  store ptr null, ptr %9, align 8
  br label %10

10:                                               ; preds = %3
  %11 = load ptr, ptr %2, align 8
  %12 = getelementptr inbounds %struct.ntlmdata, ptr %11, i32 0, i32 2
  store i32 0, ptr %12, align 4
  ret void
}

; Function Attrs: nounwind uwtable
define dso_local i32 @Curl_auth_create_ntlm_type1_message(ptr noundef %0, ptr noundef %1, ptr noundef %2, ptr noundef %3, ptr noundef %4, ptr noundef %5, ptr noundef %6) #0 {
  %8 = alloca i32, align 4
  %9 = alloca ptr, align 8
  %10 = alloca ptr, align 8
  %11 = alloca ptr, align 8
  %12 = alloca ptr, align 8
  %13 = alloca ptr, align 8
  %14 = alloca ptr, align 8
  %15 = alloca ptr, align 8
  %16 = alloca i64, align 8
  %17 = alloca ptr, align 8
  %18 = alloca ptr, align 8
  %19 = alloca ptr, align 8
  %20 = alloca i64, align 8
  %21 = alloca i64, align 8
  %22 = alloca i64, align 8
  %23 = alloca i64, align 8
  store ptr %0, ptr %9, align 8
  store ptr %1, ptr %10, align 8
  store ptr %2, ptr %11, align 8
  store ptr %3, ptr %12, align 8
  store ptr %4, ptr %13, align 8
  store ptr %5, ptr %14, align 8
  store ptr %6, ptr %15, align 8
  store ptr @.str.2, ptr %18, align 8
  store ptr @.str.2, ptr %19, align 8
  store i64 0, ptr %20, align 8
  store i64 0, ptr %21, align 8
  store i64 0, ptr %22, align 8
  %24 = load i64, ptr %22, align 8
  %25 = load i64, ptr %20, align 8
  %26 = add i64 %24, %25
  store i64 %26, ptr %23, align 8
  %27 = load ptr, ptr %14, align 8
  call void @Curl_auth_cleanup_ntlm(ptr noundef %27)
  %28 = load i64, ptr %21, align 8
  %29 = and i64 %28, 255
  %30 = trunc i64 %29 to i32
  %31 = load i64, ptr %21, align 8
  %32 = lshr i64 %31, 8
  %33 = and i64 %32, 255
  %34 = trunc i64 %33 to i32
  %35 = load i64, ptr %21, align 8
  %36 = and i64 %35, 255
  %37 = trunc i64 %36 to i32
  %38 = load i64, ptr %21, align 8
  %39 = lshr i64 %38, 8
  %40 = and i64 %39, 255
  %41 = trunc i64 %40 to i32
  %42 = load i64, ptr %23, align 8
  %43 = and i64 %42, 255
  %44 = trunc i64 %43 to i32
  %45 = load i64, ptr %23, align 8
  %46 = lshr i64 %45, 8
  %47 = and i64 %46, 255
  %48 = trunc i64 %47 to i32
  %49 = load i64, ptr %20, align 8
  %50 = and i64 %49, 255
  %51 = trunc i64 %50 to i32
  %52 = load i64, ptr %20, align 8
  %53 = lshr i64 %52, 8
  %54 = and i64 %53, 255
  %55 = trunc i64 %54 to i32
  %56 = load i64, ptr %20, align 8
  %57 = and i64 %56, 255
  %58 = trunc i64 %57 to i32
  %59 = load i64, ptr %20, align 8
  %60 = lshr i64 %59, 8
  %61 = and i64 %60, 255
  %62 = trunc i64 %61 to i32
  %63 = load i64, ptr %22, align 8
  %64 = and i64 %63, 255
  %65 = trunc i64 %64 to i32
  %66 = load i64, ptr %22, align 8
  %67 = lshr i64 %66, 8
  %68 = and i64 %67, 255
  %69 = trunc i64 %68 to i32
  %70 = load ptr, ptr %18, align 8
  %71 = load ptr, ptr %19, align 8
  %72 = call ptr (ptr, ...) @curl_maprintf(ptr noundef @.str.3, i32 noundef 0, i32 noundef 0, i32 noundef 0, i32 noundef 0, i32 noundef 6, i32 noundef 130, i32 noundef 8, i32 noundef 0, i32 noundef %30, i32 noundef %34, i32 noundef %37, i32 noundef %41, i32 noundef %44, i32 noundef %48, i32 noundef 0, i32 noundef 0, i32 noundef %51, i32 noundef %55, i32 noundef %58, i32 noundef %62, i32 noundef %65, i32 noundef %69, i32 noundef 0, i32 noundef 0, ptr noundef %70, ptr noundef %71)
  store ptr %72, ptr %17, align 8
  %73 = load ptr, ptr %17, align 8
  %74 = icmp ne ptr %73, null
  br i1 %74, label %76, label %75

75:                                               ; preds = %7
  store i32 27, ptr %8, align 4
  br label %86

76:                                               ; preds = %7
  %77 = load i64, ptr %20, align 8
  %78 = add i64 32, %77
  %79 = load i64, ptr %21, align 8
  %80 = add i64 %78, %79
  store i64 %80, ptr %16, align 8
  br label %81

81:                                               ; preds = %76
  br label %82

82:                                               ; preds = %81
  %83 = load ptr, ptr %15, align 8
  %84 = load ptr, ptr %17, align 8
  %85 = load i64, ptr %16, align 8
  call void @Curl_bufref_set(ptr noundef %83, ptr noundef %84, i64 noundef %85, ptr noundef @curl_free)
  store i32 0, ptr %8, align 4
  br label %86

86:                                               ; preds = %82, %75
  %87 = load i32, ptr %8, align 4
  ret i32 %87
}