; Function Attrs: nounwind uwtable
define dso_local range(i32 0, 28) i32 @Curl_auth_create_ntlm_type1_message(ptr noundef readnone captures(none) %0, ptr noundef readnone captures(none) %1, ptr noundef readnone captures(none) %2, ptr noundef readnone captures(none) %3, ptr noundef readnone captures(none) %4, ptr noundef captures(none) initializes((12, 16)) %5, ptr noundef %6) local_unnamed_addr #1 {
  %8 = load ptr, ptr @Curl_cfree, align 8
  %9 = getelementptr inbounds nuw i8, ptr %5, i64 16
  %10 = load ptr, ptr %9, align 8
  tail call void %8(ptr noundef %10) #7
  store ptr null, ptr %9, align 8
  %11 = getelementptr inbounds nuw i8, ptr %5, i64 12
  store i32 0, ptr %11, align 4
  %12 = tail call ptr (ptr, ...) @curl_maprintf(ptr noundef nonnull @.str.3, i32 noundef 0, i32 noundef 0, i32 noundef 0, i32 noundef 0, i32 noundef 6, i32 noundef 130, i32 noundef 8, i32 noundef 0, i32 noundef 0, i32 noundef 0, i32 noundef 0, i32 noundef 0, i32 noundef 0, i32 noundef 0, i32 noundef 0, i32 noundef 0, i32 noundef 0, i32 noundef 0, i32 noundef 0, i32 noundef 0, i32 noundef 0, i32 noundef 0, i32 noundef 0, i32 noundef 0, ptr noundef nonnull @.str.2, ptr noundef nonnull @.str.2) #7
  %.not = icmp eq ptr %12, null
  br i1 %.not, label %14, label %13

13:                                               ; preds = %7
  tail call void @Curl_bufref_set(ptr noundef %6, ptr noundef nonnull %12, i64 noundef 32, ptr noundef nonnull @curl_free) #7
  br label %14

14:                                               ; preds = %7, %13
  %.0 = phi i32 [ 0, %13 ], [ 27, %7 ]
  ret i32 %.0
}